; Function Attrs: mustprogress nofree norecurse nosync nounwind willreturn memory(argmem: write) uwtable
define hidden void @PyExpat_XML_SetDefaultHandler(ptr noundef writeonly %0, ptr noundef %1) local_unnamed_addr #3 {
  %3 = icmp eq ptr %0, null
  br i1 %3, label %7, label %4

4:                                                ; preds = %2
  %5 = getelementptr inbounds nuw i8, ptr %0, i64 176
  store ptr %1, ptr %5, align 8, !tbaa !129
  %6 = getelementptr inbounds nuw i8, ptr %0, i64 600
  store i8 0, ptr %6, align 8, !tbaa !110
  br label %7

7:                                                ; preds = %2, %4
  ret void
}